target datalayout = "e-m:e-p270:32:32-p271:32:32-p272:64:64-i64:64-i128:128-f80:128-n8:16:32:64-S128"
target triple = "x86_64-pc-linux-gnu"

%struct.hwloc_infos_s = type { ptr, i32, i32 }
%struct.hwloc_numanode_attr_s = type { i64, i32, ptr }
%struct.hwloc_obj = type { i32, ptr, i32, ptr, i64, ptr, i32, i32, ptr, ptr, ptr, i32, ptr, ptr, i32, ptr, ptr, ptr, i32, i32, ptr, i32, ptr, i32, ptr, ptr, ptr, ptr, ptr, %struct.hwloc_infos_s, ptr, i64 }
%struct.hwloc_info_s = type { ptr, ptr }

; Function Attrs: nounwind uwtable
define hidden void @hwloc__free_infos(ptr noundef %0) #0 {
  %2 = alloca ptr, align 8
  %3 = alloca i32, align 4
  store ptr %0, ptr %2, align 8, !tbaa !55
  call void @llvm.lifetime.start.p0(i64 4, ptr %3) #14
  store i32 0, ptr %3, align 4, !tbaa !33
  br label %4

4:                                                ; preds = %27, %1
  %5 = load i32, ptr %3, align 4, !tbaa !33
  %6 = load ptr, ptr %2, align 8, !tbaa !55
  %7 = getelementptr inbounds nuw %struct.hwloc_infos_s, ptr %6, i32 0, i32 1
  %8 = load i32, ptr %7, align 8, !tbaa !57
  %9 = icmp ult i32 %5, %8
  br i1 %9, label %10, label %30

10:                                               ; preds = %4
  %11 = load ptr, ptr %2, align 8, !tbaa !55
  %12 = getelementptr inbounds nuw %struct.hwloc_infos_s, ptr %11, i32 0, i32 0
  %13 = load ptr, ptr %12, align 8, !tbaa !58
  %14 = load i32, ptr %3, align 4, !tbaa !33
  %15 = zext i32 %14 to i64
  %16 = getelementptr inbounds nuw %struct.hwloc_info_s, ptr %13, i64 %15
  %17 = getelementptr inbounds nuw %struct.hwloc_info_s, ptr %16, i32 0, i32 0
  %18 = load ptr, ptr %17, align 8, !tbaa !59
  call void @free(ptr noundef %18) #14
  %19 = load ptr, ptr %2, align 8, !tbaa !55
  %20 = getelementptr inbounds nuw %struct.hwloc_infos_s, ptr %19, i32 0, i32 0
  %21 = load ptr, ptr %20, align 8, !tbaa !58
  %22 = load i32, ptr %3, align 4, !tbaa !33
  %23 = zext i32 %22 to i64
  %24 = getelementptr inbounds nuw %struct.hwloc_info_s, ptr %21, i64 %23
  %25 = getelementptr inbounds nuw %struct.hwloc_info_s, ptr %24, i32 0, i32 1
  %26 = load ptr, ptr %25, align 8, !tbaa !61
  call void @free(ptr noundef %26) #14
  br label %27

27:                                               ; preds = %10
  %28 = load i32, ptr %3, align 4, !tbaa !33
  %29 = add i32 %28, 1
  store i32 %29, ptr %3, align 4, !tbaa !33
  br label %4, !llvm.loop !62

30:                                               ; preds = %4
  %31 = load ptr, ptr %2, align 8, !tbaa !55
  %32 = getelementptr inbounds nuw %struct.hwloc_infos_s, ptr %31, i32 0, i32 0
  %33 = load ptr, ptr %32, align 8, !tbaa !58
  call void @free(ptr noundef %33) #14
  call void @llvm.lifetime.end.p0(i64 4, ptr %3) #14
  ret void
}

; Function Attrs: nounwind uwtable
define internal void @hwloc__free_object_contents(ptr noundef %0) #0 {
  %2 = alloca ptr, align 8
  store ptr %0, ptr %2, align 8, !tbaa !37
  %3 = load ptr, ptr %2, align 8, !tbaa !37
  %4 = getelementptr inbounds nuw %struct.hwloc_obj, ptr %3, i32 0, i32 0
  %5 = load i32, ptr %4, align 8, !tbaa !46
  switch i32 %5, label %12 [
    i32 14, label %6
  ]

6:                                                ; preds = %1
  %7 = load ptr, ptr %2, align 8, !tbaa !37
  %8 = getelementptr inbounds nuw %struct.hwloc_obj, ptr %7, i32 0, i32 5
  %9 = load ptr, ptr %8, align 8, !tbaa !50
  %10 = getelementptr inbounds nuw %struct.hwloc_numanode_attr_s, ptr %9, i32 0, i32 2
  %11 = load ptr, ptr %10, align 8, !tbaa !73
  call void @free(ptr noundef %11) #14
  br label %13

12:                                               ; preds = %1
  br label %13

13:                                               ; preds = %12, %6
  %14 = load ptr, ptr %2, align 8, !tbaa !37
  %15 = getelementptr inbounds nuw %struct.hwloc_obj, ptr %14, i32 0, i32 29
  call void @hwloc__free_infos(ptr noundef %15)
  %16 = load ptr, ptr %2, align 8, !tbaa !37
  %17 = getelementptr inbounds nuw %struct.hwloc_obj, ptr %16, i32 0, i32 5
  %18 = load ptr, ptr %17, align 8, !tbaa !50
  call void @free(ptr noundef %18) #14
  %19 = load ptr, ptr %2, align 8, !tbaa !37
  %20 = getelementptr inbounds nuw %struct.hwloc_obj, ptr %19, i32 0, i32 15
  %21 = load ptr, ptr %20, align 8, !tbaa !74
  call void @free(ptr noundef %21) #14
  %22 = load ptr, ptr %2, align 8, !tbaa !37
  %23 = getelementptr inbounds nuw %struct.hwloc_obj, ptr %22, i32 0, i32 1
  %24 = load ptr, ptr %23, align 8, !tbaa !54
  call void @free(ptr noundef %24) #14
  %25 = load ptr, ptr %2, align 8, !tbaa !37
  %26 = getelementptr inbounds nuw %struct.hwloc_obj, ptr %25, i32 0, i32 3
  %27 = load ptr, ptr %26, align 8, !tbaa !75
  call void @free(ptr noundef %27) #14
  %28 = load ptr, ptr %2, align 8, !tbaa !37
  %29 = getelementptr inbounds nuw %struct.hwloc_obj, ptr %28, i32 0, i32 25
  %30 = load ptr, ptr %29, align 8, !tbaa !39
  call void @hwloc_bitmap_free(ptr noundef %30)
  %31 = load ptr, ptr %2, align 8, !tbaa !37
  %32 = getelementptr inbounds nuw %struct.hwloc_obj, ptr %31, i32 0, i32 26
  %33 = load ptr, ptr %32, align 8, !tbaa !53
  call void @hwloc_bitmap_free(ptr noundef %33)
  %34 = load ptr, ptr %2, align 8, !tbaa !37
  %35 = getelementptr inbounds nuw %struct.hwloc_obj, ptr %34, i32 0, i32 27
  %36 = load ptr, ptr %35, align 8, !tbaa !76
  call void @hwloc_bitmap_free(ptr noundef %36)
  %37 = load ptr, ptr %2, align 8, !tbaa !37
  %38 = getelementptr inbounds nuw %struct.hwloc_obj, ptr %37, i32 0, i32 28
  %39 = load ptr, ptr %38, align 8, !tbaa !77
  call void @hwloc_bitmap_free(ptr noundef %39)
  ret void
}