; Function Attrs: nounwind uwtable
define internal fastcc void @hwloc__free_object_contents(ptr noundef readonly captures(none) %0) unnamed_addr #5 {
  %2 = load i32, ptr %0, align 8, !tbaa !35
  %cond = icmp eq i32 %2, 14
  br i1 %cond, label %3, label %8

3:                                                ; preds = %1
  %4 = getelementptr inbounds nuw i8, ptr %0, i64 40
  %5 = load ptr, ptr %4, align 8, !tbaa !44
  %6 = getelementptr inbounds nuw i8, ptr %5, i64 16
  %7 = load ptr, ptr %6, align 8, !tbaa !53
  tail call void @free(ptr noundef %7) #34
  br label %8

8:                                                ; preds = %1, %3
  %9 = getelementptr inbounds nuw i8, ptr %0, i64 216
  %10 = getelementptr inbounds nuw i8, ptr %0, i64 224
  %11 = load i32, ptr %10, align 8, !tbaa !68
  %.not.i = icmp eq i32 %11, 0
  br i1 %.not.i, label %hwloc__free_infos.exit, label %.lr.ph.i

.lr.ph.i:                                         ; preds = %8, %.lr.ph.i
  %indvars.iv.i = phi i64 [ %indvars.iv.next.i, %.lr.ph.i ], [ 0, %8 ]
  %12 = load ptr, ptr %9, align 8, !tbaa !69
  %13 = getelementptr inbounds nuw %struct.hwloc_info_s, ptr %12, i64 %indvars.iv.i
  %14 = load ptr, ptr %13, align 8, !tbaa !70
  tail call void @free(ptr noundef %14) #34
  %15 = load ptr, ptr %9, align 8, !tbaa !69
  %16 = getelementptr inbounds nuw %struct.hwloc_info_s, ptr %15, i64 %indvars.iv.i, i32 1
  %17 = load ptr, ptr %16, align 8, !tbaa !72
  tail call void @free(ptr noundef %17) #34
  %indvars.iv.next.i = add nuw nsw i64 %indvars.iv.i, 1
  %18 = load i32, ptr %10, align 8, !tbaa !68
  %19 = zext i32 %18 to i64
  %20 = icmp samesign ult i64 %indvars.iv.next.i, %19
  br i1 %20, label %.lr.ph.i, label %hwloc__free_infos.exit, !llvm.loop !73

hwloc__free_infos.exit:                           ; preds = %.lr.ph.i, %8
  %21 = load ptr, ptr %9, align 8, !tbaa !69
  tail call void @free(ptr noundef %21) #34
  %22 = getelementptr inbounds nuw i8, ptr %0, i64 40
  %23 = load ptr, ptr %22, align 8, !tbaa !44
  tail call void @free(ptr noundef %23) #34
  %24 = getelementptr inbounds nuw i8, ptr %0, i64 112
  %25 = load ptr, ptr %24, align 8, !tbaa !82
  tail call void @free(ptr noundef %25) #34
  %26 = getelementptr inbounds nuw i8, ptr %0, i64 8
  %27 = load ptr, ptr %26, align 8, !tbaa !63
  tail call void @free(ptr noundef %27) #34
  %28 = getelementptr inbounds nuw i8, ptr %0, i64 24
  %29 = load ptr, ptr %28, align 8, !tbaa !62
  tail call void @free(ptr noundef %29) #34
  %30 = getelementptr inbounds nuw i8, ptr %0, i64 184
  %31 = load ptr, ptr %30, align 8, !tbaa !45
  tail call void @hwloc_bitmap_free(ptr noundef %31) #34
  %32 = getelementptr inbounds nuw i8, ptr %0, i64 192
  %33 = load ptr, ptr %32, align 8, !tbaa !54
  tail call void @hwloc_bitmap_free(ptr noundef %33) #34
  %34 = getelementptr inbounds nuw i8, ptr %0, i64 200
  %35 = load ptr, ptr %34, align 8, !tbaa !83
  tail call void @hwloc_bitmap_free(ptr noundef %35) #34
  %36 = getelementptr inbounds nuw i8, ptr %0, i64 208
  %37 = load ptr, ptr %36, align 8, !tbaa !84
  tail call void @hwloc_bitmap_free(ptr noundef %37) #34
  ret void
}